
STM32_Quad.elf:     file format elf32-littlearm

Sections:
Idx Name          Size      VMA       LMA       File off  Algn
  0 .isr_vector   00000184  08000000  08000000  00001000  2**0
                  CONTENTS, ALLOC, LOAD, READONLY, DATA
  1 .text         00000588  08000184  08000184  00001184  2**2
                  CONTENTS, ALLOC, LOAD, READONLY, CODE
  2 .rodata       00000010  0800070c  0800070c  0000170c  2**2
                  CONTENTS, ALLOC, LOAD, READONLY, DATA
  3 .ARM.extab    00000000  0800071c  0800071c  00002030  2**0
                  CONTENTS, READONLY
  4 .ARM          00000000  0800071c  0800071c  00002030  2**0
                  CONTENTS, READONLY
  5 .preinit_array 00000000  0800071c  0800071c  00002030  2**0
                  CONTENTS, ALLOC, LOAD, DATA
  6 .init_array   00000004  0800071c  0800071c  0000171c  2**2
                  CONTENTS, ALLOC, LOAD, READONLY, DATA
  7 .fini_array   00000004  08000720  08000720  00001720  2**2
                  CONTENTS, ALLOC, LOAD, READONLY, DATA
  8 .data         00000030  20000000  08000724  00002000  2**2
                  CONTENTS, ALLOC, LOAD, DATA
  9 .sram2        00000000  10000000  10000000  00002030  2**0
                  CONTENTS
 10 .bss          000000b4  20000030  20000030  00002030  2**2
                  ALLOC
 11 ._user_heap_stack 00000604  200000e4  200000e4  00002030  2**0
                  ALLOC
 12 .ARM.attributes 00000030  00000000  00000000  00002030  2**0
                  CONTENTS, READONLY
 13 .debug_info   000017ab  00000000  00000000  00002060  2**0
                  CONTENTS, READONLY, DEBUGGING, OCTETS
 14 .debug_abbrev 000005b0  00000000  00000000  0000380b  2**0
                  CONTENTS, READONLY, DEBUGGING, OCTETS
 15 .debug_aranges 00000130  00000000  00000000  00003dc0  2**3
                  CONTENTS, READONLY, DEBUGGING, OCTETS
 16 .debug_rnglists 000000c9  00000000  00000000  00003ef0  2**0
                  CONTENTS, READONLY, DEBUGGING, OCTETS
 17 .debug_macro  0001876a  00000000  00000000  00003fb9  2**0
                  CONTENTS, READONLY, DEBUGGING, OCTETS
 18 .debug_line   00001e6a  00000000  00000000  0001c723  2**0
                  CONTENTS, READONLY, DEBUGGING, OCTETS
 19 .debug_str    000854a7  00000000  00000000  0001e58d  2**0
                  CONTENTS, READONLY, DEBUGGING, OCTETS
 20 .comment      00000043  00000000  00000000  000a3a34  2**0
                  CONTENTS, READONLY
 21 .debug_frame  000002e0  00000000  00000000  000a3a78  2**2
                  CONTENTS, READONLY, DEBUGGING, OCTETS
 22 .debug_line_str 00000069  00000000  00000000  000a3d58  2**0
                  CONTENTS, READONLY, DEBUGGING, OCTETS

Disassembly of section .text:

08000184 <__do_global_dtors_aux>:
 8000184:	b510      	push	{r4, lr}
 8000186:	4c05      	ldr	r4, [pc, #20]	@ (800019c <__do_global_dtors_aux+0x18>)
 8000188:	7823      	ldrb	r3, [r4, #0]
 800018a:	b933      	cbnz	r3, 800019a <__do_global_dtors_aux+0x16>
 800018c:	4b04      	ldr	r3, [pc, #16]	@ (80001a0 <__do_global_dtors_aux+0x1c>)
 800018e:	b113      	cbz	r3, 8000196 <__do_global_dtors_aux+0x12>
 8000190:	4804      	ldr	r0, [pc, #16]	@ (80001a4 <__do_global_dtors_aux+0x20>)
 8000192:	f3af 8000 	nop.w
 8000196:	2301      	movs	r3, #1
 8000198:	7023      	strb	r3, [r4, #0]
 800019a:	bd10      	pop	{r4, pc}
 800019c:	20000030 	.word	0x20000030
 80001a0:	00000000 	.word	0x00000000
 80001a4:	080006f4 	.word	0x080006f4

080001a8 <frame_dummy>:
 80001a8:	b508      	push	{r3, lr}
 80001aa:	4b03      	ldr	r3, [pc, #12]	@ (80001b8 <frame_dummy+0x10>)
 80001ac:	b11b      	cbz	r3, 80001b6 <frame_dummy+0xe>
 80001ae:	4903      	ldr	r1, [pc, #12]	@ (80001bc <frame_dummy+0x14>)
 80001b0:	4803      	ldr	r0, [pc, #12]	@ (80001c0 <frame_dummy+0x18>)
 80001b2:	f3af 8000 	nop.w
 80001b6:	bd08      	pop	{r3, pc}
 80001b8:	00000000 	.word	0x00000000
 80001bc:	20000034 	.word	0x20000034
 80001c0:	080006f4 	.word	0x080006f4

080001c4 <dma_gps_receive>:
}



void dma_gps_receive(const char *data,uint8_t size)
{
 80001c4:	b480      	push	{r7}
 80001c6:	b083      	sub	sp, #12
 80001c8:	af00      	add	r7, sp, #0
 80001ca:	6078      	str	r0, [r7, #4]
 80001cc:	460b      	mov	r3, r1
 80001ce:	70fb      	strb	r3, [r7, #3]
	RCC->AHB1ENR|=(1U<<0);
 80001d0:	4b14      	ldr	r3, [pc, #80]	@ (8000224 <dma_gps_receive+0x60>)
 80001d2:	6c9b      	ldr	r3, [r3, #72]	@ 0x48
 80001d4:	4a13      	ldr	r2, [pc, #76]	@ (8000224 <dma_gps_receive+0x60>)
 80001d6:	f043 0301 	orr.w	r3, r3, #1
 80001da:	6493      	str	r3, [r2, #72]	@ 0x48

	DMA1_Channel3->CPAR=(uint32_t)&(USART3->RDR);
 80001dc:	4b12      	ldr	r3, [pc, #72]	@ (8000228 <dma_gps_receive+0x64>)
 80001de:	4a13      	ldr	r2, [pc, #76]	@ (800022c <dma_gps_receive+0x68>)
 80001e0:	609a      	str	r2, [r3, #8]

	DMA1_Channel3->CMAR=(uint32_t)data;
 80001e2:	4a11      	ldr	r2, [pc, #68]	@ (8000228 <dma_gps_receive+0x64>)
 80001e4:	687b      	ldr	r3, [r7, #4]
 80001e6:	60d3      	str	r3, [r2, #12]

	DMA1_Channel3->CNDTR=size;
 80001e8:	4a0f      	ldr	r2, [pc, #60]	@ (8000228 <dma_gps_receive+0x64>)
 80001ea:	78fb      	ldrb	r3, [r7, #3]
 80001ec:	6053      	str	r3, [r2, #4]

	DMA1_Channel3->CCR|=((1U<<13)|(0U<<4)|(1U<<5)|(1U<<7)|(0U<<8)|(0U<<8)|(0U<<10)|(1U<<1));
 80001ee:	4b0e      	ldr	r3, [pc, #56]	@ (8000228 <dma_gps_receive+0x64>)
 80001f0:	681b      	ldr	r3, [r3, #0]
 80001f2:	4a0d      	ldr	r2, [pc, #52]	@ (8000228 <dma_gps_receive+0x64>)
 80001f4:	f443 5302 	orr.w	r3, r3, #8320	@ 0x2080
 80001f8:	f043 0322 	orr.w	r3, r3, #34	@ 0x22
 80001fc:	6013      	str	r3, [r2, #0]

	DMA1_CSELR->CSELR|=(1U<<9);
 80001fe:	4b0c      	ldr	r3, [pc, #48]	@ (8000230 <dma_gps_receive+0x6c>)
 8000200:	681b      	ldr	r3, [r3, #0]
 8000202:	4a0b      	ldr	r2, [pc, #44]	@ (8000230 <dma_gps_receive+0x6c>)
 8000204:	f443 7300 	orr.w	r3, r3, #512	@ 0x200
 8000208:	6013      	str	r3, [r2, #0]

	DMA1_Channel3->CCR|=(1U<<0);
 800020a:	4b07      	ldr	r3, [pc, #28]	@ (8000228 <dma_gps_receive+0x64>)
 800020c:	681b      	ldr	r3, [r3, #0]
 800020e:	4a06      	ldr	r2, [pc, #24]	@ (8000228 <dma_gps_receive+0x64>)
 8000210:	f043 0301 	orr.w	r3, r3, #1
 8000214:	6013      	str	r3, [r2, #0]

}
 8000216:	bf00      	nop
 8000218:	370c      	adds	r7, #12
 800021a:	46bd      	mov	sp, r7
 800021c:	f85d 7b04 	ldr.w	r7, [sp], #4
 8000220:	4770      	bx	lr
 8000222:	bf00      	nop
 8000224:	40021000 	.word	0x40021000
 8000228:	40020030 	.word	0x40020030
 800022c:	40004824 	.word	0x40004824
 8000230:	400200a8 	.word	0x400200a8

08000234 <DMA1_Channel7_IRQHandler>:

void DMA1_Channel7_IRQHandler()
{
 8000234:	b480      	push	{r7}
 8000236:	af00      	add	r7, sp, #0
	if(DMA1->ISR & (1U<<25))
 8000238:	4b08      	ldr	r3, [pc, #32]	@ (800025c <DMA1_Channel7_IRQHandler+0x28>)
 800023a:	681b      	ldr	r3, [r3, #0]
 800023c:	f003 7300 	and.w	r3, r3, #33554432	@ 0x2000000
 8000240:	2b00      	cmp	r3, #0
 8000242:	d005      	beq.n	8000250 <DMA1_Channel7_IRQHandler+0x1c>
	{
		DMA1->IFCR|=(1U<<25);
 8000244:	4b05      	ldr	r3, [pc, #20]	@ (800025c <DMA1_Channel7_IRQHandler+0x28>)
 8000246:	685b      	ldr	r3, [r3, #4]
 8000248:	4a04      	ldr	r2, [pc, #16]	@ (800025c <DMA1_Channel7_IRQHandler+0x28>)
 800024a:	f043 7300 	orr.w	r3, r3, #33554432	@ 0x2000000
 800024e:	6053      	str	r3, [r2, #4]
	}
}
 8000250:	bf00      	nop
 8000252:	46bd      	mov	sp, r7
 8000254:	f85d 7b04 	ldr.w	r7, [sp], #4
 8000258:	4770      	bx	lr
 800025a:	bf00      	nop
 800025c:	40020000 	.word	0x40020000

08000260 <__NVIC_EnableIRQ>:
  \details Enables a device specific interrupt in the NVIC interrupt controller.
  \param [in]      IRQn  Device specific interrupt number.
  \note    IRQn must not be negative.
 */
__STATIC_INLINE void __NVIC_EnableIRQ(IRQn_Type IRQn)
{
 8000260:	b480      	push	{r7}
 8000262:	b083      	sub	sp, #12
 8000264:	af00      	add	r7, sp, #0
 8000266:	4603      	mov	r3, r0
 8000268:	71fb      	strb	r3, [r7, #7]
  if ((int32_t)(IRQn) >= 0)
 800026a:	f997 3007 	ldrsb.w	r3, [r7, #7]
 800026e:	2b00      	cmp	r3, #0
 8000270:	db0b      	blt.n	800028a <__NVIC_EnableIRQ+0x2a>
  {
    __COMPILER_BARRIER();
    NVIC->ISER[(((uint32_t)IRQn) >> 5UL)] = (uint32_t)(1UL << (((uint32_t)IRQn) & 0x1FUL));
 8000272:	79fb      	ldrb	r3, [r7, #7]
 8000274:	f003 021f 	and.w	r2, r3, #31
 8000278:	4907      	ldr	r1, [pc, #28]	@ (8000298 <__NVIC_EnableIRQ+0x38>)
 800027a:	f997 3007 	ldrsb.w	r3, [r7, #7]
 800027e:	095b      	lsrs	r3, r3, #5
 8000280:	2001      	movs	r0, #1
 8000282:	fa00 f202 	lsl.w	r2, r0, r2
 8000286:	f841 2023 	str.w	r2, [r1, r3, lsl #2]
    __COMPILER_BARRIER();
  }
}
 800028a:	bf00      	nop
 800028c:	370c      	adds	r7, #12
 800028e:	46bd      	mov	sp, r7
 8000290:	f85d 7b04 	ldr.w	r7, [sp], #4
 8000294:	4770      	bx	lr
 8000296:	bf00      	nop
 8000298:	e000e100 	.word	0xe000e100

0800029c <dma_receive_intr>:
{
	NVIC_EnableIRQ(DMA1_Channel2_IRQn);
}

void dma_receive_intr()
{
 800029c:	b580      	push	{r7, lr}
 800029e:	af00      	add	r7, sp, #0
	NVIC_EnableIRQ(DMA1_Channel3_IRQn);
 80002a0:	200d      	movs	r0, #13
 80002a2:	f7ff ffdd 	bl	8000260 <__NVIC_EnableIRQ>
}
 80002a6:	bf00      	nop
 80002a8:	bd80      	pop	{r7, pc}
	...

080002ac <main>:
void DMA1_Channel3_IRQHandler();

void DMA1_Channel2_IRQHandler();

int main()
{
 80002ac:	b580      	push	{r7, lr}
 80002ae:	af00      	add	r7, sp, #0
	SetClock_16MHz();
 80002b0:	f000 f88a 	bl	80003c8 <SetClock_16MHz>
	uart_init();
 80002b4:	f000 f8f2 	bl	800049c <uart_init>
	dma_receive_intr();
 80002b8:	f7ff fff0 	bl	800029c <dma_receive_intr>
//	dma_gps_intr();
//	delay(2000);

	dma_gps_receive(buff,149);
 80002bc:	2195      	movs	r1, #149	@ 0x95
 80002be:	4821      	ldr	r0, [pc, #132]	@ (8000344 <main+0x98>)
 80002c0:	f7ff ff80 	bl	80001c4 <dma_gps_receive>
	delay(200);
 80002c4:	20c8      	movs	r0, #200	@ 0xc8
 80002c6:	f000 f8af 	bl	8000428 <delay>
	disable_gnss(disable_gll,11);
 80002ca:	210b      	movs	r1, #11
 80002cc:	481e      	ldr	r0, [pc, #120]	@ (8000348 <main+0x9c>)
 80002ce:	f000 f989 	bl	80005e4 <disable_gnss>
	delay(200);
 80002d2:	20c8      	movs	r0, #200	@ 0xc8
 80002d4:	f000 f8a8 	bl	8000428 <delay>
	disable_gnss(disable_gsa,sizeof(disable_gsa));
 80002d8:	210b      	movs	r1, #11
 80002da:	481c      	ldr	r0, [pc, #112]	@ (800034c <main+0xa0>)
 80002dc:	f000 f982 	bl	80005e4 <disable_gnss>
	delay(200);
 80002e0:	20c8      	movs	r0, #200	@ 0xc8
 80002e2:	f000 f8a1 	bl	8000428 <delay>
	disable_gnss(disable_gsv,sizeof(disable_gsv));
 80002e6:	210b      	movs	r1, #11
 80002e8:	4819      	ldr	r0, [pc, #100]	@ (8000350 <main+0xa4>)
 80002ea:	f000 f97b 	bl	80005e4 <disable_gnss>
	delay(200);
 80002ee:	20c8      	movs	r0, #200	@ 0xc8
 80002f0:	f000 f89a 	bl	8000428 <delay>
	disable_gnss(disable_vtg,sizeof(disable_vtg));
 80002f4:	210b      	movs	r1, #11
 80002f6:	4817      	ldr	r0, [pc, #92]	@ (8000354 <main+0xa8>)
 80002f8:	f000 f974 	bl	80005e4 <disable_gnss>
	delay(200);
 80002fc:	20c8      	movs	r0, #200	@ 0xc8
 80002fe:	f000 f893 	bl	8000428 <delay>



    RCC->AHB2ENR|=(1U<<1);
 8000302:	4b15      	ldr	r3, [pc, #84]	@ (8000358 <main+0xac>)
 8000304:	6cdb      	ldr	r3, [r3, #76]	@ 0x4c
 8000306:	4a14      	ldr	r2, [pc, #80]	@ (8000358 <main+0xac>)
 8000308:	f043 0302 	orr.w	r3, r3, #2
 800030c:	64d3      	str	r3, [r2, #76]	@ 0x4c

    GPIOB->MODER&=~(3U<<26);
 800030e:	4b13      	ldr	r3, [pc, #76]	@ (800035c <main+0xb0>)
 8000310:	681b      	ldr	r3, [r3, #0]
 8000312:	4a12      	ldr	r2, [pc, #72]	@ (800035c <main+0xb0>)
 8000314:	f023 6340 	bic.w	r3, r3, #201326592	@ 0xc000000
 8000318:	6013      	str	r3, [r2, #0]
    GPIOB->MODER|=(1U<<26);
 800031a:	4b10      	ldr	r3, [pc, #64]	@ (800035c <main+0xb0>)
 800031c:	681b      	ldr	r3, [r3, #0]
 800031e:	4a0f      	ldr	r2, [pc, #60]	@ (800035c <main+0xb0>)
 8000320:	f043 6380 	orr.w	r3, r3, #67108864	@ 0x4000000
 8000324:	6013      	str	r3, [r2, #0]



    while(1)
       {
    		if(read_flag)
 8000326:	4b0e      	ldr	r3, [pc, #56]	@ (8000360 <main+0xb4>)
 8000328:	781b      	ldrb	r3, [r3, #0]
 800032a:	2b00      	cmp	r3, #0
 800032c:	d0fb      	beq.n	8000326 <main+0x7a>
    		{

    			uart_write(buff);
 800032e:	4805      	ldr	r0, [pc, #20]	@ (8000344 <main+0x98>)
 8000330:	f000 f938 	bl	80005a4 <uart_write>
    			uart_write("\r\n");
 8000334:	480b      	ldr	r0, [pc, #44]	@ (8000364 <main+0xb8>)
 8000336:	f000 f935 	bl	80005a4 <uart_write>
    			read_flag=0;
 800033a:	4b09      	ldr	r3, [pc, #36]	@ (8000360 <main+0xb4>)
 800033c:	2200      	movs	r2, #0
 800033e:	701a      	strb	r2, [r3, #0]
    		if(read_flag)
 8000340:	e7f1      	b.n	8000326 <main+0x7a>
 8000342:	bf00      	nop
 8000344:	2000004c 	.word	0x2000004c
 8000348:	20000000 	.word	0x20000000
 800034c:	2000000c 	.word	0x2000000c
 8000350:	20000018 	.word	0x20000018
 8000354:	20000024 	.word	0x20000024
 8000358:	40021000 	.word	0x40021000
 800035c:	48000400 	.word	0x48000400
 8000360:	200000e1 	.word	0x200000e1
 8000364:	08000718 	.word	0x08000718

08000368 <DMA1_Channel3_IRQHandler>:
}



void DMA1_Channel3_IRQHandler()
{
 8000368:	b480      	push	{r7}
 800036a:	af00      	add	r7, sp, #0
	if(DMA1->ISR & (1U<<9))
 800036c:	4b09      	ldr	r3, [pc, #36]	@ (8000394 <DMA1_Channel3_IRQHandler+0x2c>)
 800036e:	681b      	ldr	r3, [r3, #0]
 8000370:	f403 7300 	and.w	r3, r3, #512	@ 0x200
 8000374:	2b00      	cmp	r3, #0
 8000376:	d008      	beq.n	800038a <DMA1_Channel3_IRQHandler+0x22>
	{
		DMA1->IFCR|=(1U<<9);
 8000378:	4b06      	ldr	r3, [pc, #24]	@ (8000394 <DMA1_Channel3_IRQHandler+0x2c>)
 800037a:	685b      	ldr	r3, [r3, #4]
 800037c:	4a05      	ldr	r2, [pc, #20]	@ (8000394 <DMA1_Channel3_IRQHandler+0x2c>)
 800037e:	f443 7300 	orr.w	r3, r3, #512	@ 0x200
 8000382:	6053      	str	r3, [r2, #4]
		read_flag=1;
 8000384:	4b04      	ldr	r3, [pc, #16]	@ (8000398 <DMA1_Channel3_IRQHandler+0x30>)
 8000386:	2201      	movs	r2, #1
 8000388:	701a      	strb	r2, [r3, #0]
	}
}
 800038a:	bf00      	nop
 800038c:	46bd      	mov	sp, r7
 800038e:	f85d 7b04 	ldr.w	r7, [sp], #4
 8000392:	4770      	bx	lr
 8000394:	40020000 	.word	0x40020000
 8000398:	200000e1 	.word	0x200000e1

0800039c <DMA1_Channel2_IRQHandler>:

void DMA1_Channel2_IRQHandler()
{
 800039c:	b480      	push	{r7}
 800039e:	af00      	add	r7, sp, #0
	if(DMA1->ISR & (1U<<5))
 80003a0:	4b08      	ldr	r3, [pc, #32]	@ (80003c4 <DMA1_Channel2_IRQHandler+0x28>)
 80003a2:	681b      	ldr	r3, [r3, #0]
 80003a4:	f003 0320 	and.w	r3, r3, #32
 80003a8:	2b00      	cmp	r3, #0
 80003aa:	d005      	beq.n	80003b8 <DMA1_Channel2_IRQHandler+0x1c>
	{
		DMA1->IFCR|=(1U<<5);
 80003ac:	4b05      	ldr	r3, [pc, #20]	@ (80003c4 <DMA1_Channel2_IRQHandler+0x28>)
 80003ae:	685b      	ldr	r3, [r3, #4]
 80003b0:	4a04      	ldr	r2, [pc, #16]	@ (80003c4 <DMA1_Channel2_IRQHandler+0x28>)
 80003b2:	f043 0320 	orr.w	r3, r3, #32
 80003b6:	6053      	str	r3, [r2, #4]
	}
}
 80003b8:	bf00      	nop
 80003ba:	46bd      	mov	sp, r7
 80003bc:	f85d 7b04 	ldr.w	r7, [sp], #4
 80003c0:	4770      	bx	lr
 80003c2:	bf00      	nop
 80003c4:	40020000 	.word	0x40020000

080003c8 <SetClock_16MHz>:
#define TIM6EN	(1U<<4)
#define TIM2EN	(1U<<0)
#define GPIOAEN	(1U<<0)

void SetClock_16MHz()
{
 80003c8:	b480      	push	{r7}
 80003ca:	af00      	add	r7, sp, #0
	RCC->CR|=HSION;
 80003cc:	4b15      	ldr	r3, [pc, #84]	@ (8000424 <SetClock_16MHz+0x5c>)
 80003ce:	681b      	ldr	r3, [r3, #0]
 80003d0:	4a14      	ldr	r2, [pc, #80]	@ (8000424 <SetClock_16MHz+0x5c>)
 80003d2:	f443 7380 	orr.w	r3, r3, #256	@ 0x100
 80003d6:	6013      	str	r3, [r2, #0]

	while(!(RCC->CR & HSIRDY)){}
 80003d8:	bf00      	nop
 80003da:	4b12      	ldr	r3, [pc, #72]	@ (8000424 <SetClock_16MHz+0x5c>)
 80003dc:	681b      	ldr	r3, [r3, #0]
 80003de:	f403 6380 	and.w	r3, r3, #1024	@ 0x400
 80003e2:	2b00      	cmp	r3, #0
 80003e4:	d0f9      	beq.n	80003da <SetClock_16MHz+0x12>

	RCC->CFGR&=~(3U<<0);
 80003e6:	4b0f      	ldr	r3, [pc, #60]	@ (8000424 <SetClock_16MHz+0x5c>)
 80003e8:	689b      	ldr	r3, [r3, #8]
 80003ea:	4a0e      	ldr	r2, [pc, #56]	@ (8000424 <SetClock_16MHz+0x5c>)
 80003ec:	f023 0303 	bic.w	r3, r3, #3
 80003f0:	6093      	str	r3, [r2, #8]
	RCC->CFGR|=(1U<<0);
 80003f2:	4b0c      	ldr	r3, [pc, #48]	@ (8000424 <SetClock_16MHz+0x5c>)
 80003f4:	689b      	ldr	r3, [r3, #8]
 80003f6:	4a0b      	ldr	r2, [pc, #44]	@ (8000424 <SetClock_16MHz+0x5c>)
 80003f8:	f043 0301 	orr.w	r3, r3, #1
 80003fc:	6093      	str	r3, [r2, #8]

	RCC->CFGR&=~(3U<<2);
 80003fe:	4b09      	ldr	r3, [pc, #36]	@ (8000424 <SetClock_16MHz+0x5c>)
 8000400:	689b      	ldr	r3, [r3, #8]
 8000402:	4a08      	ldr	r2, [pc, #32]	@ (8000424 <SetClock_16MHz+0x5c>)
 8000404:	f023 030c 	bic.w	r3, r3, #12
 8000408:	6093      	str	r3, [r2, #8]
	while(!(RCC->CFGR & (1U<<2))){}
 800040a:	bf00      	nop
 800040c:	4b05      	ldr	r3, [pc, #20]	@ (8000424 <SetClock_16MHz+0x5c>)
 800040e:	689b      	ldr	r3, [r3, #8]
 8000410:	f003 0304 	and.w	r3, r3, #4
 8000414:	2b00      	cmp	r3, #0
 8000416:	d0f9      	beq.n	800040c <SetClock_16MHz+0x44>

}
 8000418:	bf00      	nop
 800041a:	bf00      	nop
 800041c:	46bd      	mov	sp, r7
 800041e:	f85d 7b04 	ldr.w	r7, [sp], #4
 8000422:	4770      	bx	lr
 8000424:	40021000 	.word	0x40021000

08000428 <delay>:


void delay(uint32_t	value)
{
 8000428:	b480      	push	{r7}
 800042a:	b083      	sub	sp, #12
 800042c:	af00      	add	r7, sp, #0
 800042e:	6078      	str	r0, [r7, #4]
	RCC->APB1ENR1|=TIM6EN;
 8000430:	4b18      	ldr	r3, [pc, #96]	@ (8000494 <delay+0x6c>)
 8000432:	6d9b      	ldr	r3, [r3, #88]	@ 0x58
 8000434:	4a17      	ldr	r2, [pc, #92]	@ (8000494 <delay+0x6c>)
 8000436:	f043 0310 	orr.w	r3, r3, #16
 800043a:	6593      	str	r3, [r2, #88]	@ 0x58

	TIM6->PSC=15999;
 800043c:	4b16      	ldr	r3, [pc, #88]	@ (8000498 <delay+0x70>)
 800043e:	f643 627f 	movw	r2, #15999	@ 0x3e7f
 8000442:	629a      	str	r2, [r3, #40]	@ 0x28

	TIM6->ARR=(value-1);
 8000444:	4a14      	ldr	r2, [pc, #80]	@ (8000498 <delay+0x70>)
 8000446:	687b      	ldr	r3, [r7, #4]
 8000448:	3b01      	subs	r3, #1
 800044a:	62d3      	str	r3, [r2, #44]	@ 0x2c

	TIM6->CNT=0;
 800044c:	4b12      	ldr	r3, [pc, #72]	@ (8000498 <delay+0x70>)
 800044e:	2200      	movs	r2, #0
 8000450:	625a      	str	r2, [r3, #36]	@ 0x24

	TIM6->EGR|=(1U<<0);
 8000452:	4b11      	ldr	r3, [pc, #68]	@ (8000498 <delay+0x70>)
 8000454:	695b      	ldr	r3, [r3, #20]
 8000456:	4a10      	ldr	r2, [pc, #64]	@ (8000498 <delay+0x70>)
 8000458:	f043 0301 	orr.w	r3, r3, #1
 800045c:	6153      	str	r3, [r2, #20]

	TIM6->CR1|=(1U<<0);
 800045e:	4b0e      	ldr	r3, [pc, #56]	@ (8000498 <delay+0x70>)
 8000460:	681b      	ldr	r3, [r3, #0]
 8000462:	4a0d      	ldr	r2, [pc, #52]	@ (8000498 <delay+0x70>)
 8000464:	f043 0301 	orr.w	r3, r3, #1
 8000468:	6013      	str	r3, [r2, #0]

	TIM6->SR&=~(1U<<0);
 800046a:	4b0b      	ldr	r3, [pc, #44]	@ (8000498 <delay+0x70>)
 800046c:	691b      	ldr	r3, [r3, #16]
 800046e:	4a0a      	ldr	r2, [pc, #40]	@ (8000498 <delay+0x70>)
 8000470:	f023 0301 	bic.w	r3, r3, #1
 8000474:	6113      	str	r3, [r2, #16]

	while(!(TIM6->SR & (1U<<0))){}
 8000476:	bf00      	nop
 8000478:	4b07      	ldr	r3, [pc, #28]	@ (8000498 <delay+0x70>)
 800047a:	691b      	ldr	r3, [r3, #16]
 800047c:	f003 0301 	and.w	r3, r3, #1
 8000480:	2b00      	cmp	r3, #0
 8000482:	d0f9      	beq.n	8000478 <delay+0x50>
}
 8000484:	bf00      	nop
 8000486:	bf00      	nop
 8000488:	370c      	adds	r7, #12
 800048a:	46bd      	mov	sp, r7
 800048c:	f85d 7b04 	ldr.w	r7, [sp], #4
 8000490:	4770      	bx	lr
 8000492:	bf00      	nop
 8000494:	40021000 	.word	0x40021000
 8000498:	40001000 	.word	0x40001000

0800049c <uart_init>:
#define SYSCLK		16000000

static void set_baud(USART_TypeDef *UART,uint32_t baud);

void uart_init( )
{
 800049c:	b580      	push	{r7, lr}
 800049e:	af00      	add	r7, sp, #0
	/*PA2=USART2_TX,PB10=USART3_TX,PB11=USART3_RX*/

	/*Since the reset value is 0 no need to set bit 28 and 12 as we need 8N1*/
	RCC->AHB2ENR|=((GPIOA_EN|GPIOB_EN));
 80004a0:	4b3c      	ldr	r3, [pc, #240]	@ (8000594 <uart_init+0xf8>)
 80004a2:	6cdb      	ldr	r3, [r3, #76]	@ 0x4c
 80004a4:	4a3b      	ldr	r2, [pc, #236]	@ (8000594 <uart_init+0xf8>)
 80004a6:	f043 0303 	orr.w	r3, r3, #3
 80004aa:	64d3      	str	r3, [r2, #76]	@ 0x4c
	RCC->APB1ENR1|=((1U<<17)|(1U<<18));
 80004ac:	4b39      	ldr	r3, [pc, #228]	@ (8000594 <uart_init+0xf8>)
 80004ae:	6d9b      	ldr	r3, [r3, #88]	@ 0x58
 80004b0:	4a38      	ldr	r2, [pc, #224]	@ (8000594 <uart_init+0xf8>)
 80004b2:	f443 23c0 	orr.w	r3, r3, #393216	@ 0x60000
 80004b6:	6593      	str	r3, [r2, #88]	@ 0x58

	GPIOA->MODER&=~(3U<<4);
 80004b8:	f04f 4390 	mov.w	r3, #1207959552	@ 0x48000000
 80004bc:	681b      	ldr	r3, [r3, #0]
 80004be:	f04f 4290 	mov.w	r2, #1207959552	@ 0x48000000
 80004c2:	f023 0330 	bic.w	r3, r3, #48	@ 0x30
 80004c6:	6013      	str	r3, [r2, #0]
	GPIOB->MODER&=~((3U<<20)|(3U<<22));
 80004c8:	4b33      	ldr	r3, [pc, #204]	@ (8000598 <uart_init+0xfc>)
 80004ca:	681b      	ldr	r3, [r3, #0]
 80004cc:	4a32      	ldr	r2, [pc, #200]	@ (8000598 <uart_init+0xfc>)
 80004ce:	f423 0370 	bic.w	r3, r3, #15728640	@ 0xf00000
 80004d2:	6013      	str	r3, [r2, #0]

	GPIOA->MODER|=(1U<<5);
 80004d4:	f04f 4390 	mov.w	r3, #1207959552	@ 0x48000000
 80004d8:	681b      	ldr	r3, [r3, #0]
 80004da:	f04f 4290 	mov.w	r2, #1207959552	@ 0x48000000
 80004de:	f043 0320 	orr.w	r3, r3, #32
 80004e2:	6013      	str	r3, [r2, #0]
	GPIOB->MODER|=((1U<<21)|(1U<<23));
 80004e4:	4b2c      	ldr	r3, [pc, #176]	@ (8000598 <uart_init+0xfc>)
 80004e6:	681b      	ldr	r3, [r3, #0]
 80004e8:	4a2b      	ldr	r2, [pc, #172]	@ (8000598 <uart_init+0xfc>)
 80004ea:	f443 0320 	orr.w	r3, r3, #10485760	@ 0xa00000
 80004ee:	6013      	str	r3, [r2, #0]

	GPIOA->OSPEEDR|=(1U<<4);
 80004f0:	f04f 4390 	mov.w	r3, #1207959552	@ 0x48000000
 80004f4:	689b      	ldr	r3, [r3, #8]
 80004f6:	f04f 4290 	mov.w	r2, #1207959552	@ 0x48000000
 80004fa:	f043 0310 	orr.w	r3, r3, #16
 80004fe:	6093      	str	r3, [r2, #8]
	GPIOB->OSPEEDR|=((1U<<20)|(1U<<22));
 8000500:	4b25      	ldr	r3, [pc, #148]	@ (8000598 <uart_init+0xfc>)
 8000502:	689b      	ldr	r3, [r3, #8]
 8000504:	4a24      	ldr	r2, [pc, #144]	@ (8000598 <uart_init+0xfc>)
 8000506:	f443 03a0 	orr.w	r3, r3, #5242880	@ 0x500000
 800050a:	6093      	str	r3, [r2, #8]

	GPIOA->AFR[0]|=(7U<<8);
 800050c:	f04f 4390 	mov.w	r3, #1207959552	@ 0x48000000
 8000510:	6a1b      	ldr	r3, [r3, #32]
 8000512:	f04f 4290 	mov.w	r2, #1207959552	@ 0x48000000
 8000516:	f443 63e0 	orr.w	r3, r3, #1792	@ 0x700
 800051a:	6213      	str	r3, [r2, #32]
	GPIOB->AFR[1]|=((7U<<8)|(7U<<12));
 800051c:	4b1e      	ldr	r3, [pc, #120]	@ (8000598 <uart_init+0xfc>)
 800051e:	6a5b      	ldr	r3, [r3, #36]	@ 0x24
 8000520:	4a1d      	ldr	r2, [pc, #116]	@ (8000598 <uart_init+0xfc>)
 8000522:	f443 43ee 	orr.w	r3, r3, #30464	@ 0x7700
 8000526:	6253      	str	r3, [r2, #36]	@ 0x24

	set_baud(USART2,115200);
 8000528:	f44f 31e1 	mov.w	r1, #115200	@ 0x1c200
 800052c:	481b      	ldr	r0, [pc, #108]	@ (800059c <uart_init+0x100>)
 800052e:	f000 f87f 	bl	8000630 <set_baud>
	set_baud(USART3,9600);
 8000532:	f44f 5116 	mov.w	r1, #9600	@ 0x2580
 8000536:	481a      	ldr	r0, [pc, #104]	@ (80005a0 <uart_init+0x104>)
 8000538:	f000 f87a 	bl	8000630 <set_baud>

	/*Since the reset value for CR2  is 0 no need to configure stop bits*/

	USART2->CR1|=(1U<<0); //Enabling USART
 800053c:	4b17      	ldr	r3, [pc, #92]	@ (800059c <uart_init+0x100>)
 800053e:	681b      	ldr	r3, [r3, #0]
 8000540:	4a16      	ldr	r2, [pc, #88]	@ (800059c <uart_init+0x100>)
 8000542:	f043 0301 	orr.w	r3, r3, #1
 8000546:	6013      	str	r3, [r2, #0]
	USART3->CR1|=(1U<<0);
 8000548:	4b15      	ldr	r3, [pc, #84]	@ (80005a0 <uart_init+0x104>)
 800054a:	681b      	ldr	r3, [r3, #0]
 800054c:	4a14      	ldr	r2, [pc, #80]	@ (80005a0 <uart_init+0x104>)
 800054e:	f043 0301 	orr.w	r3, r3, #1
 8000552:	6013      	str	r3, [r2, #0]

	USART2->CR3|=(1U<<7);//Enabling DMA for USART2_TX
 8000554:	4b11      	ldr	r3, [pc, #68]	@ (800059c <uart_init+0x100>)
 8000556:	689b      	ldr	r3, [r3, #8]
 8000558:	4a10      	ldr	r2, [pc, #64]	@ (800059c <uart_init+0x100>)
 800055a:	f043 0380 	orr.w	r3, r3, #128	@ 0x80
 800055e:	6093      	str	r3, [r2, #8]
	//USART3->CR3|=(1U<<7);//Enabling DMA for USART3_TX
	USART3->CR3|=(1U<<6);//Enabling DMA for USART3_RX
 8000560:	4b0f      	ldr	r3, [pc, #60]	@ (80005a0 <uart_init+0x104>)
 8000562:	689b      	ldr	r3, [r3, #8]
 8000564:	4a0e      	ldr	r2, [pc, #56]	@ (80005a0 <uart_init+0x104>)
 8000566:	f043 0340 	orr.w	r3, r3, #64	@ 0x40
 800056a:	6093      	str	r3, [r2, #8]

	USART2->CR1|=(1U<<3);
 800056c:	4b0b      	ldr	r3, [pc, #44]	@ (800059c <uart_init+0x100>)
 800056e:	681b      	ldr	r3, [r3, #0]
 8000570:	4a0a      	ldr	r2, [pc, #40]	@ (800059c <uart_init+0x100>)
 8000572:	f043 0308 	orr.w	r3, r3, #8
 8000576:	6013      	str	r3, [r2, #0]
	USART3->CR1|=(1U<<3);
 8000578:	4b09      	ldr	r3, [pc, #36]	@ (80005a0 <uart_init+0x104>)
 800057a:	681b      	ldr	r3, [r3, #0]
 800057c:	4a08      	ldr	r2, [pc, #32]	@ (80005a0 <uart_init+0x104>)
 800057e:	f043 0308 	orr.w	r3, r3, #8
 8000582:	6013      	str	r3, [r2, #0]
	USART3->CR1 |= (1U<<2);
 8000584:	4b06      	ldr	r3, [pc, #24]	@ (80005a0 <uart_init+0x104>)
 8000586:	681b      	ldr	r3, [r3, #0]
 8000588:	4a05      	ldr	r2, [pc, #20]	@ (80005a0 <uart_init+0x104>)
 800058a:	f043 0304 	orr.w	r3, r3, #4
 800058e:	6013      	str	r3, [r2, #0]
	//USART3->CR1|=(1U<<5);//Enabling interrupt for reception
}
 8000590:	bf00      	nop
 8000592:	bd80      	pop	{r7, pc}
 8000594:	40021000 	.word	0x40021000
 8000598:	48000400 	.word	0x48000400
 800059c:	40004400 	.word	0x40004400
 80005a0:	40004800 	.word	0x40004800

080005a4 <uart_write>:

void uart_write(const char* value)
{
 80005a4:	b480      	push	{r7}
 80005a6:	b083      	sub	sp, #12
 80005a8:	af00      	add	r7, sp, #0
 80005aa:	6078      	str	r0, [r7, #4]
	while(*value)
 80005ac:	e00c      	b.n	80005c8 <uart_write+0x24>
		{
		while(!(USART2->ISR & (1U<<7))){}
 80005ae:	bf00      	nop
 80005b0:	4b0b      	ldr	r3, [pc, #44]	@ (80005e0 <uart_write+0x3c>)
 80005b2:	69db      	ldr	r3, [r3, #28]
 80005b4:	f003 0380 	and.w	r3, r3, #128	@ 0x80
 80005b8:	2b00      	cmp	r3, #0
 80005ba:	d0f9      	beq.n	80005b0 <uart_write+0xc>

		USART2->TDR=(*value++);
 80005bc:	687b      	ldr	r3, [r7, #4]
 80005be:	1c5a      	adds	r2, r3, #1
 80005c0:	607a      	str	r2, [r7, #4]
 80005c2:	781a      	ldrb	r2, [r3, #0]
 80005c4:	4b06      	ldr	r3, [pc, #24]	@ (80005e0 <uart_write+0x3c>)
 80005c6:	851a      	strh	r2, [r3, #40]	@ 0x28
	while(*value)
 80005c8:	687b      	ldr	r3, [r7, #4]
 80005ca:	781b      	ldrb	r3, [r3, #0]
 80005cc:	2b00      	cmp	r3, #0
 80005ce:	d1ee      	bne.n	80005ae <uart_write+0xa>
	}
}
 80005d0:	bf00      	nop
 80005d2:	bf00      	nop
 80005d4:	370c      	adds	r7, #12
 80005d6:	46bd      	mov	sp, r7
 80005d8:	f85d 7b04 	ldr.w	r7, [sp], #4
 80005dc:	4770      	bx	lr
 80005de:	bf00      	nop
 80005e0:	40004400 	.word	0x40004400

080005e4 <disable_gnss>:


void disable_gnss(uint8_t  *arr,uint8_t size)
{
 80005e4:	b480      	push	{r7}
 80005e6:	b085      	sub	sp, #20
 80005e8:	af00      	add	r7, sp, #0
 80005ea:	6078      	str	r0, [r7, #4]
 80005ec:	460b      	mov	r3, r1
 80005ee:	70fb      	strb	r3, [r7, #3]
	for(int i=0;i<size;i++)
 80005f0:	2300      	movs	r3, #0
 80005f2:	60fb      	str	r3, [r7, #12]
 80005f4:	e00f      	b.n	8000616 <disable_gnss+0x32>
	{
		while(!(USART3->ISR & (1U<<7))){}
 80005f6:	bf00      	nop
 80005f8:	4b0c      	ldr	r3, [pc, #48]	@ (800062c <disable_gnss+0x48>)
 80005fa:	69db      	ldr	r3, [r3, #28]
 80005fc:	f003 0380 	and.w	r3, r3, #128	@ 0x80
 8000600:	2b00      	cmp	r3, #0
 8000602:	d0f9      	beq.n	80005f8 <disable_gnss+0x14>
					USART3->TDR=arr[i];
 8000604:	68fb      	ldr	r3, [r7, #12]
 8000606:	687a      	ldr	r2, [r7, #4]
 8000608:	4413      	add	r3, r2
 800060a:	781a      	ldrb	r2, [r3, #0]
 800060c:	4b07      	ldr	r3, [pc, #28]	@ (800062c <disable_gnss+0x48>)
 800060e:	851a      	strh	r2, [r3, #40]	@ 0x28
	for(int i=0;i<size;i++)
 8000610:	68fb      	ldr	r3, [r7, #12]
 8000612:	3301      	adds	r3, #1
 8000614:	60fb      	str	r3, [r7, #12]
 8000616:	78fb      	ldrb	r3, [r7, #3]
 8000618:	68fa      	ldr	r2, [r7, #12]
 800061a:	429a      	cmp	r2, r3
 800061c:	dbeb      	blt.n	80005f6 <disable_gnss+0x12>
	}
}
 800061e:	bf00      	nop
 8000620:	bf00      	nop
 8000622:	3714      	adds	r7, #20
 8000624:	46bd      	mov	sp, r7
 8000626:	f85d 7b04 	ldr.w	r7, [sp], #4
 800062a:	4770      	bx	lr
 800062c:	40004800 	.word	0x40004800

08000630 <set_baud>:
		uart_write(buff);
	}
}

static void set_baud(USART_TypeDef *UART,uint32_t baud)
{
 8000630:	b480      	push	{r7}
 8000632:	b083      	sub	sp, #12
 8000634:	af00      	add	r7, sp, #0
 8000636:	6078      	str	r0, [r7, #4]
 8000638:	6039      	str	r1, [r7, #0]
	UART->BRR=(SYSCLK/baud);
 800063a:	4a06      	ldr	r2, [pc, #24]	@ (8000654 <set_baud+0x24>)
 800063c:	683b      	ldr	r3, [r7, #0]
 800063e:	fbb2 f2f3 	udiv	r2, r2, r3
 8000642:	687b      	ldr	r3, [r7, #4]
 8000644:	60da      	str	r2, [r3, #12]
}
 8000646:	bf00      	nop
 8000648:	370c      	adds	r7, #12
 800064a:	46bd      	mov	sp, r7
 800064c:	f85d 7b04 	ldr.w	r7, [sp], #4
 8000650:	4770      	bx	lr
 8000652:	bf00      	nop
 8000654:	00f42400 	.word	0x00f42400

08000658 <Reset_Handler>:

  .section .text.Reset_Handler
  .weak Reset_Handler
  .type Reset_Handler, %function
Reset_Handler:
  ldr   r0, =_estack
 8000658:	480d      	ldr	r0, [pc, #52]	@ (8000690 <LoopForever+0x2>)
  mov   sp, r0          /* set stack pointer */
 800065a:	4685      	mov	sp, r0
/* Call the clock system initialization function.*/
  bl  SystemInit
 800065c:	f3af 8000 	nop.w

/* Copy the data segment initializers from flash to SRAM */
  ldr r0, =_sdata
 8000660:	480c      	ldr	r0, [pc, #48]	@ (8000694 <LoopForever+0x6>)
  ldr r1, =_edata
 8000662:	490d      	ldr	r1, [pc, #52]	@ (8000698 <LoopForever+0xa>)
  ldr r2, =_sidata
 8000664:	4a0d      	ldr	r2, [pc, #52]	@ (800069c <LoopForever+0xe>)
  movs r3, #0
 8000666:	2300      	movs	r3, #0
  b LoopCopyDataInit
 8000668:	e002      	b.n	8000670 <LoopCopyDataInit>

0800066a <CopyDataInit>:

CopyDataInit:
  ldr r4, [r2, r3]
 800066a:	58d4      	ldr	r4, [r2, r3]
  str r4, [r0, r3]
 800066c:	50c4      	str	r4, [r0, r3]
  adds r3, r3, #4
 800066e:	3304      	adds	r3, #4

08000670 <LoopCopyDataInit>:

LoopCopyDataInit:
  adds r4, r0, r3
 8000670:	18c4      	adds	r4, r0, r3
  cmp r4, r1
 8000672:	428c      	cmp	r4, r1
  bcc CopyDataInit
 8000674:	d3f9      	bcc.n	800066a <CopyDataInit>

/* Zero fill the bss segment. */
  ldr r2, =_sbss
 8000676:	4a0a      	ldr	r2, [pc, #40]	@ (80006a0 <LoopForever+0x12>)
  ldr r4, =_ebss
 8000678:	4c0a      	ldr	r4, [pc, #40]	@ (80006a4 <LoopForever+0x16>)
  movs r3, #0
 800067a:	2300      	movs	r3, #0
  b LoopFillZerobss
 800067c:	e001      	b.n	8000682 <LoopFillZerobss>

0800067e <FillZerobss>:

FillZerobss:
  str  r3, [r2]
 800067e:	6013      	str	r3, [r2, #0]
  adds r2, r2, #4
 8000680:	3204      	adds	r2, #4

08000682 <LoopFillZerobss>:

LoopFillZerobss:
  cmp r2, r4
 8000682:	42a2      	cmp	r2, r4
  bcc FillZerobss
 8000684:	d3fb      	bcc.n	800067e <FillZerobss>

/* Call static constructors */
  bl __libc_init_array
 8000686:	f000 f811 	bl	80006ac <__libc_init_array>
/* Call the application's entry point.*/
  bl main
 800068a:	f7ff fe0f 	bl	80002ac <main>

0800068e <LoopForever>:

LoopForever:
  b LoopForever
 800068e:	e7fe      	b.n	800068e <LoopForever>
  ldr   r0, =_estack
 8000690:	20010000 	.word	0x20010000
  ldr r0, =_sdata
 8000694:	20000000 	.word	0x20000000
  ldr r1, =_edata
 8000698:	20000030 	.word	0x20000030
  ldr r2, =_sidata
 800069c:	08000724 	.word	0x08000724
  ldr r2, =_sbss
 80006a0:	20000030 	.word	0x20000030
  ldr r4, =_ebss
 80006a4:	200000e4 	.word	0x200000e4

080006a8 <ADC1_IRQHandler>:
 * @retval : None
*/
  .section .text.Default_Handler,"ax",%progbits
Default_Handler:
Infinite_Loop:
  b Infinite_Loop
 80006a8:	e7fe      	b.n	80006a8 <ADC1_IRQHandler>
	...

080006ac <__libc_init_array>:
 80006ac:	b570      	push	{r4, r5, r6, lr}
 80006ae:	4d0d      	ldr	r5, [pc, #52]	@ (80006e4 <__libc_init_array+0x38>)
 80006b0:	4c0d      	ldr	r4, [pc, #52]	@ (80006e8 <__libc_init_array+0x3c>)
 80006b2:	1b64      	subs	r4, r4, r5
 80006b4:	10a4      	asrs	r4, r4, #2
 80006b6:	2600      	movs	r6, #0
 80006b8:	42a6      	cmp	r6, r4
 80006ba:	d109      	bne.n	80006d0 <__libc_init_array+0x24>
 80006bc:	4d0b      	ldr	r5, [pc, #44]	@ (80006ec <__libc_init_array+0x40>)
 80006be:	4c0c      	ldr	r4, [pc, #48]	@ (80006f0 <__libc_init_array+0x44>)
 80006c0:	f000 f818 	bl	80006f4 <_init>
 80006c4:	1b64      	subs	r4, r4, r5
 80006c6:	10a4      	asrs	r4, r4, #2
 80006c8:	2600      	movs	r6, #0
 80006ca:	42a6      	cmp	r6, r4
 80006cc:	d105      	bne.n	80006da <__libc_init_array+0x2e>
 80006ce:	bd70      	pop	{r4, r5, r6, pc}
 80006d0:	f855 3b04 	ldr.w	r3, [r5], #4
 80006d4:	4798      	blx	r3
 80006d6:	3601      	adds	r6, #1
 80006d8:	e7ee      	b.n	80006b8 <__libc_init_array+0xc>
 80006da:	f855 3b04 	ldr.w	r3, [r5], #4
 80006de:	4798      	blx	r3
 80006e0:	3601      	adds	r6, #1
 80006e2:	e7f2      	b.n	80006ca <__libc_init_array+0x1e>
 80006e4:	0800071c 	.word	0x0800071c
 80006e8:	0800071c 	.word	0x0800071c
 80006ec:	0800071c 	.word	0x0800071c
 80006f0:	08000720 	.word	0x08000720

080006f4 <_init>:
 80006f4:	b5f8      	push	{r3, r4, r5, r6, r7, lr}
 80006f6:	bf00      	nop
 80006f8:	bcf8      	pop	{r3, r4, r5, r6, r7}
 80006fa:	bc08      	pop	{r3}
 80006fc:	469e      	mov	lr, r3
 80006fe:	4770      	bx	lr

08000700 <_fini>:
 8000700:	b5f8      	push	{r3, r4, r5, r6, r7, lr}
 8000702:	bf00      	nop
 8000704:	bcf8      	pop	{r3, r4, r5, r6, r7}
 8000706:	bc08      	pop	{r3}
 8000708:	469e      	mov	lr, r3
 800070a:	4770      	bx	lr
